; Function Attrs: nounwind uwtable
define internal noundef i32 @parse_opt_explicit_encoding(ptr noundef readonly captures(none) %0, ptr noundef %1, i32 noundef %2) #0 {
  %.not = icmp eq i32 %2, 0
  br i1 %.not, label %5, label %4

4:                                                ; preds = %3
  tail call void (ptr, i32, ptr, ...) @BUG_fl(ptr noundef nonnull @.str.15, i32 noundef 35, ptr noundef nonnull @.str.17) #8
  unreachable

5:                                                ; preds = %3
  %6 = getelementptr inbounds nuw i8, ptr %0, i64 16
  %7 = load ptr, ptr %6, align 8, !tbaa !14
  store i32 2, ptr %7, align 8, !tbaa !22
  %8 = getelementptr inbounds nuw i8, ptr %7, i64 8
  store ptr %1, ptr %8, align 8, !tbaa !33
  ret i32 0
}